; Function Attrs: nounwind uwtable
define noundef ptr @aglasterr() local_unnamed_addr #2 {
  %1 = load i8, ptr getelementptr inbounds nuw (i8, ptr @last, i64 31), align 1, !tbaa !9
  %.not.i = icmp eq i8 %1, -1
  br i1 %.not.i, label %10, label %2

2:                                                ; preds = %0
  %3 = zext i8 %1 to i64
  %4 = tail call noalias ptr @strndup(ptr noundef nonnull @last, i64 noundef %3) #19
  %5 = icmp eq ptr %4, null
  br i1 %5, label %6, label %agxbdisown.exit

6:                                                ; preds = %2
  %7 = load ptr, ptr @stderr, align 8, !tbaa !10
  %8 = add nuw nsw i64 %3, 1
  %9 = tail call i32 (ptr, ptr, ...) @fprintf(ptr noundef %7, ptr noundef nonnull @.str.1, i64 noundef %8) #20
  tail call fastcc void @graphviz_exit() #21
  unreachable

10:                                               ; preds = %0
  %11 = load i64, ptr getelementptr inbounds nuw (i8, ptr @last, i64 8), align 8
  %12 = load i64, ptr getelementptr inbounds nuw (i8, ptr @last, i64 16), align 8
  %.not.i7.i = icmp ult i64 %11, %12
  br i1 %.not.i7.i, label %.thread.i, label %13

13:                                               ; preds = %10
  tail call fastcc void @agxbmore(i64 noundef 1)
  %.pre.i.i = load i8, ptr getelementptr inbounds nuw (i8, ptr @last, i64 31), align 1, !tbaa !9
  %.not1.i.i = icmp eq i8 %.pre.i.i, -1
  br i1 %.not1.i.i, label %..thread_crit_edge.i, label %14

..thread_crit_edge.i:                             ; preds = %13
  %.pre.i = load i64, ptr getelementptr inbounds nuw (i8, ptr @last, i64 8), align 8
  br label %.thread.i

14:                                               ; preds = %13
  %15 = zext i8 %.pre.i.i to i64
  %16 = getelementptr inbounds nuw [31 x i8], ptr @last, i64 0, i64 %15
  store i8 0, ptr %16, align 1, !tbaa !9
  br label %agxbputc.exit.i

.thread.i:                                        ; preds = %..thread_crit_edge.i, %10
  %17 = phi i64 [ %.pre.i, %..thread_crit_edge.i ], [ %11, %10 ]
  %18 = load ptr, ptr @last, align 8, !tbaa !9
  %19 = getelementptr inbounds nuw i8, ptr %18, i64 %17
  store i8 0, ptr %19, align 1, !tbaa !9
  br label %agxbputc.exit.i

agxbputc.exit.i:                                  ; preds = %.thread.i, %14
  %20 = load ptr, ptr @last, align 8, !tbaa !9
  br label %agxbdisown.exit

agxbdisown.exit:                                  ; preds = %2, %agxbputc.exit.i
  %.0.i = phi ptr [ %20, %agxbputc.exit.i ], [ %4, %2 ]
  tail call void @llvm.memset.p0.i64(ptr noundef nonnull align 8 dereferenceable(32) @last, i8 0, i64 32, i1 false)
  %21 = tail call i64 @strlen(ptr noundef nonnull readonly dereferenceable(1) %.0.i) #22
  %22 = icmp eq i64 %21, 0
  br i1 %22, label %agxbput.exit, label %23

23:                                               ; preds = %agxbdisown.exit
  %24 = icmp ugt i64 %21, 31
  br i1 %24, label %25, label %.thread

25:                                               ; preds = %23
  tail call fastcc void @agxbmore(i64 noundef %21)
  %.pre.i.i5 = load i8, ptr getelementptr inbounds nuw (i8, ptr @last, i64 31), align 1, !tbaa !9
  %.not.i.i = icmp eq i8 %.pre.i.i5, -1
  br i1 %.not.i.i, label %32, label %.thread

.thread:                                          ; preds = %23, %25
  %26 = phi i8 [ %.pre.i.i5, %25 ], [ 0, %23 ]
  %27 = zext i8 %26 to i64
  %28 = getelementptr inbounds nuw [31 x i8], ptr @last, i64 0, i64 %27
  tail call void @llvm.memcpy.p0.p0.i64(ptr nonnull align 1 %28, ptr nonnull readonly align 1 %.0.i, i64 %21, i1 false)
  %29 = trunc i64 %21 to i8
  %30 = load i8, ptr getelementptr inbounds nuw (i8, ptr @last, i64 31), align 1, !tbaa !9
  %31 = add i8 %30, %29
  store i8 %31, ptr getelementptr inbounds nuw (i8, ptr @last, i64 31), align 1, !tbaa !9
  br label %agxbput.exit

32:                                               ; preds = %25
  %33 = load i64, ptr getelementptr inbounds nuw (i8, ptr @last, i64 8), align 8
  %34 = load ptr, ptr @last, align 8, !tbaa !9
  %35 = getelementptr inbounds nuw i8, ptr %34, i64 %33
  tail call void @llvm.memcpy.p0.p0.i64(ptr align 1 %35, ptr nonnull readonly align 1 %.0.i, i64 %21, i1 false)
  %36 = load i64, ptr getelementptr inbounds nuw (i8, ptr @last, i64 8), align 8, !tbaa !9
  %37 = add i64 %36, %21
  store i64 %37, ptr getelementptr inbounds nuw (i8, ptr @last, i64 8), align 8, !tbaa !9
  br label %agxbput.exit

agxbput.exit:                                     ; preds = %agxbdisown.exit, %.thread, %32
  %.val = load i8, ptr %.0.i, align 1
  %38 = icmp eq i8 %.val, 0
  br i1 %38, label %39, label %40

39:                                               ; preds = %agxbput.exit
  tail call void @free(ptr noundef nonnull %.0.i) #19
  br label %40

40:                                               ; preds = %agxbput.exit, %39
  %.0 = phi ptr [ null, %39 ], [ %.0.i, %agxbput.exit ]
  ret ptr %.0
}